target datalayout = "e-m:e-p270:32:32-p271:32:32-p272:64:64-i64:64-i128:128-f80:128-n8:16:32:64-S128"
target triple = "x86_64-pc-linux-gnu"

%"class.std::__cxx11::basic_string" = type { %"struct.std::__cxx11::basic_string<char>::_Alloc_hider", i64, %union.anon }
%"struct.std::__cxx11::basic_string<char>::_Alloc_hider" = type { ptr }
%union.anon = type { i64, [8 x i8] }
%"class.cvc5::internal::prop::PropEngine" = type { %"class.cvc5::internal::EnvObj", i8, ptr, %"class.std::unique_ptr", ptr, ptr, %"class.std::vector", ptr, %"class.cvc5::internal::CDProof", %"class.std::unique_ptr.15", i8, [7 x i8], %"class.cvc5::context::CDList", %"struct.cvc5::internal::prop::PropEngine::Statistics" }
%"class.cvc5::internal::EnvObj" = type { ptr, ptr }
%"class.std::unique_ptr" = type { %"struct.std::__uniq_ptr_data" }
%"struct.std::__uniq_ptr_data" = type { %"class.std::__uniq_ptr_impl" }
%"class.std::__uniq_ptr_impl" = type { %"class.std::tuple" }
%"class.std::tuple" = type { %"struct.std::_Tuple_impl" }
%"struct.std::_Tuple_impl" = type { %"struct.std::_Head_base.1" }
%"struct.std::_Head_base.1" = type { ptr }
%"class.std::vector" = type { %"struct.std::_Vector_base" }
%"struct.std::_Vector_base" = type { %"struct.std::_Vector_base<cvc5::internal::NodeTemplate<true>, std::allocator<cvc5::internal::NodeTemplate<true>>>::_Vector_impl" }
%"struct.std::_Vector_base<cvc5::internal::NodeTemplate<true>, std::allocator<cvc5::internal::NodeTemplate<true>>>::_Vector_impl" = type { %"struct.std::_Vector_base<cvc5::internal::NodeTemplate<true>, std::allocator<cvc5::internal::NodeTemplate<true>>>::_Vector_impl_data" }
%"struct.std::_Vector_base<cvc5::internal::NodeTemplate<true>, std::allocator<cvc5::internal::NodeTemplate<true>>>::_Vector_impl_data" = type { ptr, ptr, ptr }
%"class.cvc5::internal::CDProof" = type <{ %"class.cvc5::internal::EnvObj", %"class.cvc5::internal::ProofGenerator", %"class.cvc5::context::Context", %"class.cvc5::context::CDHashMap", %"class.std::__cxx11::basic_string", i8, [7 x i8] }>
%"class.cvc5::internal::ProofGenerator" = type { ptr }
%"class.cvc5::context::Context" = type { ptr, %"class.std::vector.2", ptr, ptr }
%"class.std::vector.2" = type { %"struct.std::_Vector_base.3" }
%"struct.std::_Vector_base.3" = type { %"struct.std::_Vector_base<cvc5::context::Scope *, std::allocator<cvc5::context::Scope *>>::_Vector_impl" }
%"struct.std::_Vector_base<cvc5::context::Scope *, std::allocator<cvc5::context::Scope *>>::_Vector_impl" = type { %"struct.std::_Vector_base<cvc5::context::Scope *, std::allocator<cvc5::context::Scope *>>::_Vector_impl_data" }
%"struct.std::_Vector_base<cvc5::context::Scope *, std::allocator<cvc5::context::Scope *>>::_Vector_impl_data" = type { ptr, ptr, ptr }
%"class.cvc5::context::CDHashMap" = type { %"class.cvc5::context::ContextObj", %"class.std::unordered_map", ptr, ptr }
%"class.cvc5::context::ContextObj" = type { ptr, ptr, ptr, ptr, ptr }
%"class.std::unordered_map" = type { %"class.std::_Hashtable" }
%"class.std::_Hashtable" = type { ptr, i64, %"struct.std::__detail::_Hash_node_base", i64, %"struct.std::__detail::_Prime_rehash_policy", ptr }
%"struct.std::__detail::_Hash_node_base" = type { ptr }
%"struct.std::__detail::_Prime_rehash_policy" = type { float, i64 }
%"class.std::unique_ptr.15" = type { %"struct.std::__uniq_ptr_data.16" }
%"struct.std::__uniq_ptr_data.16" = type { %"class.std::__uniq_ptr_impl.17" }
%"class.std::__uniq_ptr_impl.17" = type { %"class.std::tuple.18" }
%"class.std::tuple.18" = type { %"struct.std::_Tuple_impl.19" }
%"struct.std::_Tuple_impl.19" = type { %"struct.std::_Head_base.22" }
%"struct.std::_Head_base.22" = type { ptr }
%"class.cvc5::context::CDList" = type <{ %"class.cvc5::context::ContextObj", %"class.std::vector", i64, i8, [7 x i8] }>
%"struct.cvc5::internal::prop::PropEngine::Statistics" = type { %"class.cvc5::internal::IntStat" }
%"class.cvc5::internal::IntStat" = type { %"class.cvc5::internal::ValueStat" }
%"class.cvc5::internal::ValueStat" = type { ptr }

; Function Attrs: mustprogress uwtable
define hidden void @_ZNK4cvc58internal4prop10PropEngine16getPropOrderHeapEv(ptr dead_on_unwind noalias writable sret(%"class.std::vector") align 8 %0, ptr noundef nonnull align 8 dereferenceable(416) %1) #6 align 2 {
  %3 = alloca ptr, align 8
  %4 = alloca ptr, align 8
  store ptr %0, ptr %3, align 8
  store ptr %1, ptr %4, align 8, !tbaa !16
  %5 = load ptr, ptr %4, align 8
  %6 = getelementptr inbounds nuw %"class.cvc5::internal::prop::PropEngine", ptr %5, i32 0, i32 5
  %7 = load ptr, ptr %6, align 8, !tbaa !85
  %8 = load ptr, ptr %7, align 8, !tbaa !22
  %9 = getelementptr inbounds ptr, ptr %8, i64 26
  %10 = load ptr, ptr %9, align 8
  call void %10(ptr dead_on_unwind writable sret(%"class.std::vector") align 8 %0, ptr noundef nonnull align 8 dereferenceable(8) %7)
  ret void
}